; Function Attrs: mustprogress uwtable
define hidden void @_ZN19OpenColorIO_v2_4dev23XmlReaderDescriptionElt3endEv(ptr noundef nonnull align 8 dereferenceable(129) %this) unnamed_addr #4 align 2 {
entry:
  %m_changed = getelementptr inbounds i8, ptr %this, i64 128
  %0 = load i8, ptr %m_changed, align 8
  %1 = and i8 %0, 1
  %tobool.not = icmp eq i8 %1, 0
  br i1 %tobool.not, label %if.end, label %if.then

if.then:                                          ; preds = %entry
  %m_parent.i = getelementptr inbounds i8, ptr %this, i64 80
  %2 = load ptr, ptr %m_parent.i, align 8
  %vtable = load ptr, ptr %this, align 8
  %vfn = getelementptr inbounds i8, ptr %vtable, i64 40
  %3 = load ptr, ptr %vfn, align 8
  %call3 = tail call noundef nonnull align 8 dereferenceable(32) ptr %3(ptr noundef nonnull align 8 dereferenceable(96) %this)
  %m_description = getelementptr inbounds i8, ptr %this, i64 96
  %vtable4 = load ptr, ptr %2, align 8
  %vfn5 = getelementptr inbounds i8, ptr %vtable4, i64 64
  %4 = load ptr, ptr %vfn5, align 8
  tail call void %4(ptr noundef nonnull align 8 dereferenceable(80) %2, ptr noundef nonnull align 8 dereferenceable(32) %call3, ptr noundef nonnull align 8 dereferenceable(32) %m_description)
  br label %if.end

if.end:                                           ; preds = %if.then, %entry
  ret void
}